; Function Attrs: mustprogress uwtable
define hidden void @_ZN6solver11assert_exprEP4expr(ptr noundef nonnull align 8 dereferenceable(96) %0, ptr noundef %1) local_unnamed_addr #3 align 2 personality ptr @__gxx_personality_v0 {
  %3 = alloca %class.obj_ref.54, align 8
  call void @llvm.lifetime.start.p0(i64 16, ptr nonnull %3) #25
  %4 = load ptr, ptr %0, align 8, !tbaa !3
  %5 = getelementptr inbounds nuw i8, ptr %4, i64 72
  %6 = load ptr, ptr %5, align 8
  %7 = tail call noundef nonnull align 8 dereferenceable(976) ptr %6(ptr noundef nonnull align 8 dereferenceable(72) %0)
  store ptr %1, ptr %3, align 8, !tbaa !77
  %8 = getelementptr inbounds nuw i8, ptr %3, i64 8
  store ptr %7, ptr %8, align 8, !tbaa !6
  %.not.i.i = icmp eq ptr %1, null
  br i1 %.not.i.i, label %_ZN7obj_refI4expr11ast_managerEC2EPS0_RS1_.exit, label %_ZN11ast_manager7inc_refEP3ast.exit.i.i

_ZN11ast_manager7inc_refEP3ast.exit.i.i:          ; preds = %2
  %9 = getelementptr inbounds nuw i8, ptr %1, i64 8
  %10 = load i32, ptr %9, align 4, !tbaa !14
  %11 = add i32 %10, 1
  store i32 %11, ptr %9, align 4, !tbaa !14
  br label %_ZN7obj_refI4expr11ast_managerEC2EPS0_RS1_.exit

_ZN7obj_refI4expr11ast_managerEC2EPS0_RS1_.exit:  ; preds = %2, %_ZN11ast_manager7inc_refEP3ast.exit.i.i
  %12 = load ptr, ptr %0, align 8, !tbaa !3
  %13 = getelementptr inbounds nuw i8, ptr %12, i64 144
  %14 = load ptr, ptr %13, align 8
  invoke void %14(ptr noundef nonnull align 8 dereferenceable(96) %0, ptr noundef %1)
          to label %15 unwind label %25

15:                                               ; preds = %_ZN7obj_refI4expr11ast_managerEC2EPS0_RS1_.exit
  br i1 %.not.i.i, label %_ZN7obj_refI4expr11ast_managerED2Ev.exit, label %16

16:                                               ; preds = %15
  %17 = getelementptr inbounds nuw i8, ptr %1, i64 8
  %18 = load i32, ptr %17, align 4, !tbaa !14
  %19 = add i32 %18, -1
  store i32 %19, ptr %17, align 4, !tbaa !14
  %20 = icmp eq i32 %19, 0
  br i1 %20, label %21, label %_ZN7obj_refI4expr11ast_managerED2Ev.exit

21:                                               ; preds = %16
  invoke void @_ZN11ast_manager11delete_nodeEP3ast(ptr noundef nonnull align 8 dereferenceable(976) %7, ptr noundef nonnull %1)
          to label %_ZN7obj_refI4expr11ast_managerED2Ev.exit unwind label %22

22:                                               ; preds = %21
  %23 = landingpad { ptr, i32 }
          catch ptr null
  %24 = extractvalue { ptr, i32 } %23, 0
  tail call void @__clang_call_terminate(ptr %24) #26
  unreachable

_ZN7obj_refI4expr11ast_managerED2Ev.exit:         ; preds = %15, %16, %21
  call void @llvm.lifetime.end.p0(i64 16, ptr nonnull %3) #25
  ret void

25:                                               ; preds = %_ZN7obj_refI4expr11ast_managerEC2EPS0_RS1_.exit
  %26 = landingpad { ptr, i32 }
          cleanup
  call void @_ZN7obj_refI4expr11ast_managerED2Ev(ptr noundef nonnull align 8 dereferenceable(16) %3) #25
  call void @llvm.lifetime.end.p0(i64 16, ptr nonnull %3) #25
  resume { ptr, i32 } %26
}